target datalayout = "e-m:e-p270:32:32-p271:32:32-p272:64:64-i64:64-i128:128-f80:128-n8:16:32:64-S128"
target triple = "x86_64-pc-linux-gnu"

%struct._object = type { %union.anon, ptr }
%union.anon = type { i64 }
%struct.PyMutex = type { i8 }
%struct._queues = type { ptr, ptr, i64, i64 }
%struct.idarg_int64_converter_data = type { ptr, i64 }
%struct.globals = type { %struct.PyMutex, i32, %struct._queues }
%struct._queueref = type { ptr, i64, i64, ptr }

@_globals = internal global { %struct.PyMutex, [3 x i8], i32, %struct._queues } zeroinitializer, align 8
@_Py_NoneStruct = external global %struct._object, align 8
@queuesmod_bind.kwlist = internal global [2 x ptr] [ptr @.str.28, ptr null], align 16
@.str.41 = private unnamed_addr constant [8 x i8] c"O&:bind\00", align 1

; Function Attrs: nounwind uwtable
define internal ptr @_queuerefs_find(ptr noundef %0, i64 noundef %1, ptr noundef %2) #0 {
  %4 = alloca ptr, align 8
  %5 = alloca i64, align 8
  %6 = alloca ptr, align 8
  %7 = alloca ptr, align 8
  %8 = alloca ptr, align 8
  store ptr %0, ptr %4, align 8, !tbaa !50
  store i64 %1, ptr %5, align 8, !tbaa !11
  store ptr %2, ptr %6, align 8, !tbaa !77
  call void @llvm.lifetime.start.p0(i64 8, ptr %7) #8
  store ptr null, ptr %7, align 8, !tbaa !50
  call void @llvm.lifetime.start.p0(i64 8, ptr %8) #8
  %9 = load ptr, ptr %4, align 8, !tbaa !50
  store ptr %9, ptr %8, align 8, !tbaa !50
  br label %10

10:                                               ; preds = %20, %3
  %11 = load ptr, ptr %8, align 8, !tbaa !50
  %12 = icmp ne ptr %11, null
  br i1 %12, label %13, label %25

13:                                               ; preds = %10
  %14 = load ptr, ptr %8, align 8, !tbaa !50
  %15 = getelementptr inbounds nuw %struct._queueref, ptr %14, i32 0, i32 1
  %16 = load i64, ptr %15, align 8, !tbaa !53
  %17 = load i64, ptr %5, align 8, !tbaa !11
  %18 = icmp eq i64 %16, %17
  br i1 %18, label %19, label %20

19:                                               ; preds = %13
  br label %25

20:                                               ; preds = %13
  %21 = load ptr, ptr %8, align 8, !tbaa !50
  store ptr %21, ptr %7, align 8, !tbaa !50
  %22 = load ptr, ptr %8, align 8, !tbaa !50
  %23 = getelementptr inbounds nuw %struct._queueref, ptr %22, i32 0, i32 0
  %24 = load ptr, ptr %23, align 8, !tbaa !51
  store ptr %24, ptr %8, align 8, !tbaa !50
  br label %10, !llvm.loop !79

25:                                               ; preds = %19, %10
  %26 = load ptr, ptr %6, align 8, !tbaa !77
  %27 = icmp ne ptr %26, null
  br i1 %27, label %28, label %31

28:                                               ; preds = %25
  %29 = load ptr, ptr %7, align 8, !tbaa !50
  %30 = load ptr, ptr %6, align 8, !tbaa !77
  store ptr %29, ptr %30, align 8, !tbaa !50
  br label %31

31:                                               ; preds = %28, %25
  %32 = load ptr, ptr %8, align 8, !tbaa !50
  call void @llvm.lifetime.end.p0(i64 8, ptr %8) #8
  call void @llvm.lifetime.end.p0(i64 8, ptr %7) #8
  ret ptr %32
}

; Function Attrs: nounwind uwtable
define internal i32 @_queues_incref(ptr noundef %0, i64 noundef %1) #0 {
  %3 = alloca ptr, align 8
  %4 = alloca i64, align 8
  %5 = alloca i32, align 4
  %6 = alloca ptr, align 8
  store ptr %0, ptr %3, align 8, !tbaa !39
  store i64 %1, ptr %4, align 8, !tbaa !11
  call void @llvm.lifetime.start.p0(i64 4, ptr %5) #8
  store i32 -1, ptr %5, align 4, !tbaa !9
  %7 = load ptr, ptr %3, align 8, !tbaa !39
  %8 = getelementptr inbounds nuw %struct._queues, ptr %7, i32 0, i32 0
  %9 = load ptr, ptr %8, align 8, !tbaa !49
  %10 = call i32 @PyThread_acquire_lock(ptr noundef %9, i32 noundef 1)
  call void @llvm.lifetime.start.p0(i64 8, ptr %6) #8
  %11 = load ptr, ptr %3, align 8, !tbaa !39
  %12 = getelementptr inbounds nuw %struct._queues, ptr %11, i32 0, i32 1
  %13 = load ptr, ptr %12, align 8, !tbaa !57
  %14 = load i64, ptr %4, align 8, !tbaa !11
  %15 = call ptr @_queuerefs_find(ptr noundef %13, i64 noundef %14, ptr noundef null)
  store ptr %15, ptr %6, align 8, !tbaa !50
  %16 = load ptr, ptr %6, align 8, !tbaa !50
  %17 = icmp eq ptr %16, null
  br i1 %17, label %18, label %19

18:                                               ; preds = %2
  store i32 -14, ptr %5, align 4, !tbaa !9
  br label %24

19:                                               ; preds = %2
  %20 = load ptr, ptr %6, align 8, !tbaa !50
  %21 = getelementptr inbounds nuw %struct._queueref, ptr %20, i32 0, i32 2
  %22 = load i64, ptr %21, align 8, !tbaa !54
  %23 = add i64 %22, 1
  store i64 %23, ptr %21, align 8, !tbaa !54
  store i32 0, ptr %5, align 4, !tbaa !9
  br label %24

24:                                               ; preds = %19, %18
  %25 = load ptr, ptr %3, align 8, !tbaa !39
  %26 = getelementptr inbounds nuw %struct._queues, ptr %25, i32 0, i32 0
  %27 = load ptr, ptr %26, align 8, !tbaa !49
  call void @PyThread_release_lock(ptr noundef %27)
  %28 = load i32, ptr %5, align 4, !tbaa !9
  call void @llvm.lifetime.end.p0(i64 8, ptr %6) #8
  call void @llvm.lifetime.end.p0(i64 4, ptr %5) #8
  ret i32 %28
}

; Function Attrs: nounwind uwtable
define internal ptr @queuesmod_bind(ptr noundef %0, ptr noundef %1, ptr noundef %2) #0 {
  %4 = alloca ptr, align 8
  %5 = alloca ptr, align 8
  %6 = alloca ptr, align 8
  %7 = alloca ptr, align 8
  %8 = alloca %struct.idarg_int64_converter_data, align 8
  %9 = alloca i32, align 4
  %10 = alloca i64, align 8
  %11 = alloca i32, align 4
  store ptr %0, ptr %5, align 8, !tbaa !3
  store ptr %1, ptr %6, align 8, !tbaa !3
  store ptr %2, ptr %7, align 8, !tbaa !3
  call void @llvm.lifetime.start.p0(i64 16, ptr %8) #8
  call void @llvm.memset.p0.i64(ptr align 8 %8, i8 0, i64 16, i1 false)
  %12 = load ptr, ptr %6, align 8, !tbaa !3
  %13 = load ptr, ptr %7, align 8, !tbaa !3
  %14 = call i32 (ptr, ptr, ptr, ptr, ...) @PyArg_ParseTupleAndKeywords(ptr noundef %12, ptr noundef %13, ptr noundef @.str.41, ptr noundef @queuesmod_bind.kwlist, ptr noundef @qidarg_converter, ptr noundef %8)
  %15 = icmp ne i32 %14, 0
  br i1 %15, label %17, label %16

16:                                               ; preds = %3
  store ptr null, ptr %4, align 8
  store i32 1, ptr %9, align 4
  br label %30

17:                                               ; preds = %3
  call void @llvm.lifetime.start.p0(i64 8, ptr %10) #8
  %18 = getelementptr inbounds nuw %struct.idarg_int64_converter_data, ptr %8, i32 0, i32 1
  %19 = load i64, ptr %18, align 8, !tbaa !13
  store i64 %19, ptr %10, align 8, !tbaa !11
  call void @llvm.lifetime.start.p0(i64 4, ptr %11) #8
  %20 = load i64, ptr %10, align 8, !tbaa !11
  %21 = call i32 @_queues_incref(ptr noundef getelementptr inbounds nuw (%struct.globals, ptr @_globals, i32 0, i32 2), i64 noundef %20)
  store i32 %21, ptr %11, align 4, !tbaa !9
  %22 = load i32, ptr %11, align 4, !tbaa !9
  %23 = load ptr, ptr %5, align 8, !tbaa !3
  %24 = load i64, ptr %10, align 8, !tbaa !11
  %25 = call i32 @handle_queue_error(i32 noundef %22, ptr noundef %23, i64 noundef %24)
  %26 = icmp ne i32 %25, 0
  br i1 %26, label %27, label %28

27:                                               ; preds = %17
  store ptr null, ptr %4, align 8
  store i32 1, ptr %9, align 4
  br label %29

28:                                               ; preds = %17
  store ptr @_Py_NoneStruct, ptr %4, align 8
  store i32 1, ptr %9, align 4
  br label %29

29:                                               ; preds = %28, %27
  call void @llvm.lifetime.end.p0(i64 4, ptr %11) #8
  call void @llvm.lifetime.end.p0(i64 8, ptr %10) #8
  br label %30

30:                                               ; preds = %29, %16
  call void @llvm.lifetime.end.p0(i64 16, ptr %8) #8
  %31 = load ptr, ptr %4, align 8
  ret ptr %31
}