; Function Attrs: nounwind uwtable
define internal ptr @queuesmod_bind(ptr noundef %0, ptr noundef %1, ptr noundef %2) #0 {
  %4 = alloca %struct.idarg_int64_converter_data, align 8
  call void @llvm.lifetime.start.p0(i64 16, ptr nonnull %4) #6
  call void @llvm.memset.p0.i64(ptr noundef nonnull align 8 dereferenceable(16) %4, i8 0, i64 16, i1 false)
  %5 = call i32 (ptr, ptr, ptr, ptr, ...) @PyArg_ParseTupleAndKeywords(ptr noundef %1, ptr noundef %2, ptr noundef nonnull @.str.41, ptr noundef nonnull @queuesmod_bind.kwlist, ptr noundef nonnull @qidarg_converter, ptr noundef nonnull %4) #6
  %.not = icmp eq i32 %5, 0
  br i1 %.not, label %22, label %6

6:                                                ; preds = %3
  %7 = getelementptr inbounds nuw i8, ptr %4, i64 8
  %8 = load i64, ptr %7, align 8, !tbaa !43
  %9 = load ptr, ptr getelementptr inbounds nuw (i8, ptr @_globals, i64 8), align 8, !tbaa !20
  %10 = call i32 @PyThread_acquire_lock(ptr noundef %9, i32 noundef 1) #6
  %11 = load ptr, ptr getelementptr inbounds nuw (i8, ptr @_globals, i64 16), align 8, !tbaa !39
  %.not12.i.i = icmp eq ptr %11, null
  br i1 %.not12.i.i, label %_queues_incref.exit, label %.lr.ph.i.i

.lr.ph.i.i:                                       ; preds = %6, %15
  %.014.i.i = phi ptr [ %16, %15 ], [ %11, %6 ]
  %12 = getelementptr inbounds nuw i8, ptr %.014.i.i, i64 8
  %13 = load i64, ptr %12, align 8, !tbaa !46
  %14 = icmp eq i64 %13, %8
  br i1 %14, label %_queuerefs_find.exit.i, label %15

15:                                               ; preds = %.lr.ph.i.i
  %16 = load ptr, ptr %.014.i.i, align 8, !tbaa !40
  %.not.i.i = icmp eq ptr %16, null
  br i1 %.not.i.i, label %_queues_incref.exit, label %.lr.ph.i.i, !llvm.loop !62

_queuerefs_find.exit.i:                           ; preds = %.lr.ph.i.i
  %17 = getelementptr inbounds nuw i8, ptr %.014.i.i, i64 16
  %18 = load i64, ptr %17, align 8, !tbaa !74
  %19 = add i64 %18, 1
  store i64 %19, ptr %17, align 8, !tbaa !74
  br label %_queues_incref.exit

_queues_incref.exit:                              ; preds = %15, %6, %_queuerefs_find.exit.i
  %.0.i = phi i32 [ 0, %_queuerefs_find.exit.i ], [ -14, %6 ], [ -14, %15 ]
  %20 = load ptr, ptr getelementptr inbounds nuw (i8, ptr @_globals, i64 8), align 8, !tbaa !20
  call void @PyThread_release_lock(ptr noundef %20) #6
  %21 = call fastcc i32 @handle_queue_error(i32 noundef %.0.i, ptr noundef %0, i64 noundef %8)
  %.not6 = icmp eq i32 %21, 0
  %_Py_NoneStruct. = select i1 %.not6, ptr @_Py_NoneStruct, ptr null
  br label %22

22:                                               ; preds = %3, %_queues_incref.exit
  %.0 = phi ptr [ %_Py_NoneStruct., %_queues_incref.exit ], [ null, %3 ]
  call void @llvm.lifetime.end.p0(i64 16, ptr nonnull %4) #6
  ret ptr %.0
}